; Function Attrs: mustprogress nounwind uwtable
define internal void @_ZN12_GLOBAL__N_120elim_small_bv_tacticD0Ev(ptr noundef nonnull align 8 dereferenceable(688) %this) unnamed_addr #4 align 2 {
entry:
  store ptr getelementptr inbounds ({ [25 x ptr] }, ptr @_ZTVN12_GLOBAL__N_120elim_small_bv_tacticE, i64 0, i32 0, i64 2), ptr %this, align 8
  %m_params.i = getelementptr inbounds i8, ptr %this, i64 680
  tail call void @_ZN10params_refD1Ev(ptr noundef nonnull align 8 dereferenceable(8) %m_params.i) #15
  %m_rw.i = getelementptr inbounds i8, ptr %this, i64 24
  tail call void @_ZN12_GLOBAL__N_120elim_small_bv_tactic2rwD2Ev(ptr noundef nonnull align 8 dereferenceable(656) %m_rw.i) #15
  tail call void @_ZdlPv(ptr noundef nonnull %this) #17
  ret void
}